; ModuleID = '43/608.c'
source_filename = "43/608.c"
target datalayout = "e-m:e-p270:32:32-p271:32:32-p272:64:64-i64:64-f80:128-n8:16:32:64-S128"
target triple = "x86_64-pc-linux-gnu"

@.str = private unnamed_addr constant [3 x i8] c"%d\00", align 1
@.str.1 = private unnamed_addr constant [8 x i8] c"%d %d\0A\0A\00", align 1

; Function Attrs: noinline nounwind uwtable
define dso_local i32 @main() #0 {
  %1 = alloca i32, align 4
  %2 = alloca i32, align 4
  %3 = alloca i32, align 4
  %4 = alloca i32, align 4
  %5 = alloca i32, align 4
  %6 = alloca i32, align 4
  store i32 0, i32* %1, align 4
  %7 = call i32 (i8*, ...) @__isoc99_scanf(i8* getelementptr inbounds ([3 x i8], [3 x i8]* @.str, i64 0, i64 0), i32* %2)
  store i32 2, i32* %3, align 4
  br label %8

8:                                                ; preds = %76, %0
  %9 = load i32, i32* %3, align 4
  %10 = load i32, i32* %2, align 4
  %11 = sdiv i32 %10, 2
  %12 = icmp sle i32 %9, %11
  br i1 %12, label %13, label %79

13:                                               ; preds = %8
  store i32 0, i32* %5, align 4
  store i32 0, i32* %6, align 4
  %14 = load i32, i32* %3, align 4
  %15 = srem i32 %14, 2
  %16 = icmp eq i32 %15, 0
  br i1 %16, label %17, label %18

17:                                               ; preds = %13
  br label %76

18:                                               ; preds = %13
  store i32 2, i32* %4, align 4
  br label %19

19:                                               ; preds = %34, %18
  %20 = load i32, i32* %4, align 4
  %21 = load i32, i32* %3, align 4
  %22 = sdiv i32 %21, 2
  %23 = icmp slt i32 %20, %22
  br i1 %23, label %24, label %37

24:                                               ; preds = %19
  %25 = load i32, i32* %3, align 4
  %26 = load i32, i32* %4, align 4
  %27 = srem i32 %25, %26
  %28 = icmp ne i32 %27, 0
  br i1 %28, label %29, label %30

29:                                               ; preds = %24
  br label %34

30:                                               ; preds = %24
  %31 = load i32, i32* %5, align 4
  %32 = add nsw i32 %31, 1
  store i32 %32, i32* %5, align 4
  br label %33

33:                                               ; preds = %30
  br label %34

34:                                               ; preds = %33, %29
  %35 = load i32, i32* %4, align 4
  %36 = add nsw i32 %35, 1
  store i32 %36, i32* %4, align 4
  br label %19

37:                                               ; preds = %19
  %38 = load i32, i32* %5, align 4
  %39 = icmp eq i32 %38, 0
  br i1 %39, label %40, label %64

40:                                               ; preds = %37
  store i32 2, i32* %4, align 4
  br label %41

41:                                               ; preds = %60, %40
  %42 = load i32, i32* %4, align 4
  %43 = load i32, i32* %2, align 4
  %44 = load i32, i32* %3, align 4
  %45 = sub nsw i32 %43, %44
  %46 = sdiv i32 %45, 2
  %47 = icmp slt i32 %42, %46
  br i1 %47, label %48, label %63

48:                                               ; preds = %41
  %49 = load i32, i32* %2, align 4
  %50 = load i32, i32* %3, align 4
  %51 = sub nsw i32 %49, %50
  %52 = load i32, i32* %4, align 4
  %53 = srem i32 %51, %52
  %54 = icmp ne i32 %53, 0
  br i1 %54, label %55, label %56

55:                                               ; preds = %48
  br label %60

56:                                               ; preds = %48
  %57 = load i32, i32* %6, align 4
  %58 = add nsw i32 %57, 1
  store i32 %58, i32* %6, align 4
  br label %59

59:                                               ; preds = %56
  br label %60

60:                                               ; preds = %59, %55
  %61 = load i32, i32* %4, align 4
  %62 = add nsw i32 %61, 1
  store i32 %62, i32* %4, align 4
  br label %41

63:                                               ; preds = %41
  br label %65

64:                                               ; preds = %37
  br label %76

65:                                               ; preds = %63
  %66 = load i32, i32* %6, align 4
  %67 = icmp eq i32 %66, 0
  br i1 %67, label %68, label %74

68:                                               ; preds = %65
  %69 = load i32, i32* %3, align 4
  %70 = load i32, i32* %2, align 4
  %71 = load i32, i32* %3, align 4
  %72 = sub nsw i32 %70, %71
  %73 = call i32 (i8*, ...) @printf(i8* getelementptr inbounds ([8 x i8], [8 x i8]* @.str.1, i64 0, i64 0), i32 %69, i32 %72)
  br label %75

74:                                               ; preds = %65
  br label %76

75:                                               ; preds = %68
  br label %76

76:                                               ; preds = %75, %74, %64, %17
  %77 = load i32, i32* %3, align 4
  %78 = add nsw i32 %77, 1
  store i32 %78, i32* %3, align 4
  br label %8

79:                                               ; preds = %8
  ret i32 0
}

declare dso_local i32 @__isoc99_scanf(i8*, ...) #1

declare dso_local i32 @printf(i8*, ...) #1


!llvm.module.flags = !{!0}
!llvm.ident = !{!1}

!0 = !{i32 1, !"wchar_size", i32 4}
!1 = !{!"clang version 10.0.0-4ubuntu1 "}
